#include <math.h>
#include <stdio.h>
#include <stdlib.h>
#include <string.h>

int main(){
	char X[20][100];
	int i,A;
	int Q;
	for(i=0;i<20;i++){
		scanf("%s",X[i]);
        Q=getchar();
		if(Q=='\n'){
			A=i;
			break;
		}
	}
	char W[100],Y[100];
	scanf("%s",W);
	scanf("%s",Y);
	for(i=0;i<=A;i++){
		if(strcmp(X[i],W)==0){
			strcpy(X[i],Y);
		}
	}
	for(i=0;i<=A;i++){
		if (i==0){
			printf("%s",X[0]);
		}else{
			printf(" %s",X[i]);
		}
	}
		
	return 0;
}