; ModuleID = '19/1162.c'
source_filename = "19/1162.c"
target datalayout = "e-m:e-p270:32:32-p271:32:32-p272:64:64-i64:64-f80:128-n8:16:32:64-S128"
target triple = "x86_64-pc-linux-gnu"

@.str = private unnamed_addr constant [3 x i8] c"%s\00", align 1
@.str.1 = private unnamed_addr constant [4 x i8] c" %s\00", align 1

; Function Attrs: noinline nounwind uwtable
define dso_local i32 @main() #0 {
  %1 = alloca i32, align 4
  %2 = alloca [20 x [100 x i8]], align 16
  %3 = alloca i32, align 4
  %4 = alloca i32, align 4
  %5 = alloca i32, align 4
  %6 = alloca [100 x i8], align 16
  %7 = alloca [100 x i8], align 16
  store i32 0, i32* %1, align 4
  store i32 0, i32* %3, align 4
  br label %8

8:                                                ; preds = %23, %0
  %9 = load i32, i32* %3, align 4
  %10 = icmp slt i32 %9, 20
  br i1 %10, label %11, label %26

11:                                               ; preds = %8
  %12 = load i32, i32* %3, align 4
  %13 = sext i32 %12 to i64
  %14 = getelementptr inbounds [20 x [100 x i8]], [20 x [100 x i8]]* %2, i64 0, i64 %13
  %15 = getelementptr inbounds [100 x i8], [100 x i8]* %14, i64 0, i64 0
  %16 = call i32 (i8*, ...) @__isoc99_scanf(i8* getelementptr inbounds ([3 x i8], [3 x i8]* @.str, i64 0, i64 0), i8* %15)
  %17 = call i32 @getchar()
  store i32 %17, i32* %5, align 4
  %18 = load i32, i32* %5, align 4
  %19 = icmp eq i32 %18, 10
  br i1 %19, label %20, label %22

20:                                               ; preds = %11
  %21 = load i32, i32* %3, align 4
  store i32 %21, i32* %4, align 4
  br label %26

22:                                               ; preds = %11
  br label %23

23:                                               ; preds = %22
  %24 = load i32, i32* %3, align 4
  %25 = add nsw i32 %24, 1
  store i32 %25, i32* %3, align 4
  br label %8

26:                                               ; preds = %20, %8
  %27 = getelementptr inbounds [100 x i8], [100 x i8]* %6, i64 0, i64 0
  %28 = call i32 (i8*, ...) @__isoc99_scanf(i8* getelementptr inbounds ([3 x i8], [3 x i8]* @.str, i64 0, i64 0), i8* %27)
  %29 = getelementptr inbounds [100 x i8], [100 x i8]* %7, i64 0, i64 0
  %30 = call i32 (i8*, ...) @__isoc99_scanf(i8* getelementptr inbounds ([3 x i8], [3 x i8]* @.str, i64 0, i64 0), i8* %29)
  store i32 0, i32* %3, align 4
  br label %31

31:                                               ; preds = %51, %26
  %32 = load i32, i32* %3, align 4
  %33 = load i32, i32* %4, align 4
  %34 = icmp sle i32 %32, %33
  br i1 %34, label %35, label %54

35:                                               ; preds = %31
  %36 = load i32, i32* %3, align 4
  %37 = sext i32 %36 to i64
  %38 = getelementptr inbounds [20 x [100 x i8]], [20 x [100 x i8]]* %2, i64 0, i64 %37
  %39 = getelementptr inbounds [100 x i8], [100 x i8]* %38, i64 0, i64 0
  %40 = getelementptr inbounds [100 x i8], [100 x i8]* %6, i64 0, i64 0
  %41 = call i32 @strcmp(i8* %39, i8* %40) #4
  %42 = icmp eq i32 %41, 0
  br i1 %42, label %43, label %50

43:                                               ; preds = %35
  %44 = load i32, i32* %3, align 4
  %45 = sext i32 %44 to i64
  %46 = getelementptr inbounds [20 x [100 x i8]], [20 x [100 x i8]]* %2, i64 0, i64 %45
  %47 = getelementptr inbounds [100 x i8], [100 x i8]* %46, i64 0, i64 0
  %48 = getelementptr inbounds [100 x i8], [100 x i8]* %7, i64 0, i64 0
  %49 = call i8* @strcpy(i8* %47, i8* %48) #5
  br label %50

50:                                               ; preds = %43, %35
  br label %51

51:                                               ; preds = %50
  %52 = load i32, i32* %3, align 4
  %53 = add nsw i32 %52, 1
  store i32 %53, i32* %3, align 4
  br label %31

54:                                               ; preds = %31
  store i32 0, i32* %3, align 4
  br label %55

55:                                               ; preds = %73, %54
  %56 = load i32, i32* %3, align 4
  %57 = load i32, i32* %4, align 4
  %58 = icmp sle i32 %56, %57
  br i1 %58, label %59, label %76

59:                                               ; preds = %55
  %60 = load i32, i32* %3, align 4
  %61 = icmp eq i32 %60, 0
  br i1 %61, label %62, label %66

62:                                               ; preds = %59
  %63 = getelementptr inbounds [20 x [100 x i8]], [20 x [100 x i8]]* %2, i64 0, i64 0
  %64 = getelementptr inbounds [100 x i8], [100 x i8]* %63, i64 0, i64 0
  %65 = call i32 (i8*, ...) @printf(i8* getelementptr inbounds ([3 x i8], [3 x i8]* @.str, i64 0, i64 0), i8* %64)
  br label %72

66:                                               ; preds = %59
  %67 = load i32, i32* %3, align 4
  %68 = sext i32 %67 to i64
  %69 = getelementptr inbounds [20 x [100 x i8]], [20 x [100 x i8]]* %2, i64 0, i64 %68
  %70 = getelementptr inbounds [100 x i8], [100 x i8]* %69, i64 0, i64 0
  %71 = call i32 (i8*, ...) @printf(i8* getelementptr inbounds ([4 x i8], [4 x i8]* @.str.1, i64 0, i64 0), i8* %70)
  br label %72

72:                                               ; preds = %66, %62
  br label %73

73:                                               ; preds = %72
  %74 = load i32, i32* %3, align 4
  %75 = add nsw i32 %74, 1
  store i32 %75, i32* %3, align 4
  br label %55

76:                                               ; preds = %55
  ret i32 0
}

declare dso_local i32 @__isoc99_scanf(i8*, ...) #1

declare dso_local i32 @getchar() #1

; Function Attrs: nounwind readonly
declare dso_local i32 @strcmp(i8*, i8*) #2

; Function Attrs: nounwind
declare dso_local i8* @strcpy(i8*, i8*) #3

declare dso_local i32 @printf(i8*, ...) #1


!llvm.module.flags = !{!0}
!llvm.ident = !{!1}

!0 = !{i32 1, !"wchar_size", i32 4}
!1 = !{!"clang version 10.0.0-4ubuntu1 "}
